
test.elf:     file format elf32-littleriscv


Disassembly of section .text:

00010000 <_start>:
   10000:	00002117          	auipc	sp,0x2
   10004:	64010113          	addi	sp,sp,1600 # 12640 <__stack_top>
   10008:	00001297          	auipc	t0,0x1
   1000c:	63028293          	addi	t0,t0,1584 # 11638 <__bss_end>
   10010:	00001317          	auipc	t1,0x1
   10014:	62830313          	addi	t1,t1,1576 # 11638 <__bss_end>
   10018:	0062d863          	bge	t0,t1,10028 <_start+0x28>
   1001c:	0002a023          	sw	zero,0(t0)
   10020:	00428293          	addi	t0,t0,4
   10024:	ff5ff06f          	j	10018 <_start+0x18>
   10028:	56d000ef          	jal	10d94 <main>
   1002c:	05d00893          	li	a7,93
   10030:	00000513          	li	a0,0
   10034:	00000073          	ecall
   10038:	0000006f          	j	10038 <_start+0x38>

0001003c <memcpy>:
   1003c:	fd010113          	addi	sp,sp,-48
   10040:	02112623          	sw	ra,44(sp)
   10044:	02812423          	sw	s0,40(sp)
   10048:	03010413          	addi	s0,sp,48
   1004c:	fca42e23          	sw	a0,-36(s0)
   10050:	fcb42c23          	sw	a1,-40(s0)
   10054:	fcc42a23          	sw	a2,-44(s0)
   10058:	fdc42783          	lw	a5,-36(s0)
   1005c:	fef42623          	sw	a5,-20(s0)
   10060:	fd842783          	lw	a5,-40(s0)
   10064:	fef42423          	sw	a5,-24(s0)
   10068:	0240006f          	j	1008c <memcpy+0x50>
   1006c:	fe842703          	lw	a4,-24(s0)
   10070:	00170793          	addi	a5,a4,1
   10074:	fef42423          	sw	a5,-24(s0)
   10078:	fec42783          	lw	a5,-20(s0)
   1007c:	00178693          	addi	a3,a5,1
   10080:	fed42623          	sw	a3,-20(s0)
   10084:	00074703          	lbu	a4,0(a4)
   10088:	00e78023          	sb	a4,0(a5)
   1008c:	fd442783          	lw	a5,-44(s0)
   10090:	fff78713          	addi	a4,a5,-1
   10094:	fce42a23          	sw	a4,-44(s0)
   10098:	fc079ae3          	bnez	a5,1006c <memcpy+0x30>
   1009c:	fdc42783          	lw	a5,-36(s0)
   100a0:	00078513          	mv	a0,a5
   100a4:	02c12083          	lw	ra,44(sp)
   100a8:	02812403          	lw	s0,40(sp)
   100ac:	03010113          	addi	sp,sp,48
   100b0:	00008067          	ret

000100b4 <udiv>:
   100b4:	fd010113          	addi	sp,sp,-48
   100b8:	02112623          	sw	ra,44(sp)
   100bc:	02812423          	sw	s0,40(sp)
   100c0:	03010413          	addi	s0,sp,48
   100c4:	fca42e23          	sw	a0,-36(s0)
   100c8:	fcb42c23          	sw	a1,-40(s0)
   100cc:	fd842783          	lw	a5,-40(s0)
   100d0:	00079663          	bnez	a5,100dc <udiv+0x28>
   100d4:	00000793          	li	a5,0
   100d8:	08c0006f          	j	10164 <udiv+0xb0>
   100dc:	fe042623          	sw	zero,-20(s0)
   100e0:	fe042423          	sw	zero,-24(s0)
   100e4:	01f00793          	li	a5,31
   100e8:	fef42223          	sw	a5,-28(s0)
   100ec:	06c0006f          	j	10158 <udiv+0xa4>
   100f0:	fe842783          	lw	a5,-24(s0)
   100f4:	00179793          	slli	a5,a5,0x1
   100f8:	fef42423          	sw	a5,-24(s0)
   100fc:	fe442783          	lw	a5,-28(s0)
   10100:	fdc42703          	lw	a4,-36(s0)
   10104:	00f757b3          	srl	a5,a4,a5
   10108:	0017f793          	andi	a5,a5,1
   1010c:	fe842703          	lw	a4,-24(s0)
   10110:	00f767b3          	or	a5,a4,a5
   10114:	fef42423          	sw	a5,-24(s0)
   10118:	fe842703          	lw	a4,-24(s0)
   1011c:	fd842783          	lw	a5,-40(s0)
   10120:	02f76663          	bltu	a4,a5,1014c <udiv+0x98>
   10124:	fe842703          	lw	a4,-24(s0)
   10128:	fd842783          	lw	a5,-40(s0)
   1012c:	40f707b3          	sub	a5,a4,a5
   10130:	fef42423          	sw	a5,-24(s0)
   10134:	fe442783          	lw	a5,-28(s0)
   10138:	00100713          	li	a4,1
   1013c:	00f717b3          	sll	a5,a4,a5
   10140:	fec42703          	lw	a4,-20(s0)
   10144:	00f767b3          	or	a5,a4,a5
   10148:	fef42623          	sw	a5,-20(s0)
   1014c:	fe442783          	lw	a5,-28(s0)
   10150:	fff78793          	addi	a5,a5,-1
   10154:	fef42223          	sw	a5,-28(s0)
   10158:	fe442783          	lw	a5,-28(s0)
   1015c:	f807dae3          	bgez	a5,100f0 <udiv+0x3c>
   10160:	fec42783          	lw	a5,-20(s0)
   10164:	00078513          	mv	a0,a5
   10168:	02c12083          	lw	ra,44(sp)
   1016c:	02812403          	lw	s0,40(sp)
   10170:	03010113          	addi	sp,sp,48
   10174:	00008067          	ret

00010178 <umod>:
   10178:	fd010113          	addi	sp,sp,-48
   1017c:	02112623          	sw	ra,44(sp)
   10180:	02812423          	sw	s0,40(sp)
   10184:	03010413          	addi	s0,sp,48
   10188:	fca42e23          	sw	a0,-36(s0)
   1018c:	fcb42c23          	sw	a1,-40(s0)
   10190:	fd842783          	lw	a5,-40(s0)
   10194:	00079663          	bnez	a5,101a0 <umod+0x28>
   10198:	00000793          	li	a5,0
   1019c:	0700006f          	j	1020c <umod+0x94>
   101a0:	fe042623          	sw	zero,-20(s0)
   101a4:	01f00793          	li	a5,31
   101a8:	fef42423          	sw	a5,-24(s0)
   101ac:	0540006f          	j	10200 <umod+0x88>
   101b0:	fec42783          	lw	a5,-20(s0)
   101b4:	00179793          	slli	a5,a5,0x1
   101b8:	fef42623          	sw	a5,-20(s0)
   101bc:	fe842783          	lw	a5,-24(s0)
   101c0:	fdc42703          	lw	a4,-36(s0)
   101c4:	00f757b3          	srl	a5,a4,a5
   101c8:	0017f793          	andi	a5,a5,1
   101cc:	fec42703          	lw	a4,-20(s0)
   101d0:	00f767b3          	or	a5,a4,a5
   101d4:	fef42623          	sw	a5,-20(s0)
   101d8:	fec42703          	lw	a4,-20(s0)
   101dc:	fd842783          	lw	a5,-40(s0)
   101e0:	00f76a63          	bltu	a4,a5,101f4 <umod+0x7c>
   101e4:	fec42703          	lw	a4,-20(s0)
   101e8:	fd842783          	lw	a5,-40(s0)
   101ec:	40f707b3          	sub	a5,a4,a5
   101f0:	fef42623          	sw	a5,-20(s0)
   101f4:	fe842783          	lw	a5,-24(s0)
   101f8:	fff78793          	addi	a5,a5,-1
   101fc:	fef42423          	sw	a5,-24(s0)
   10200:	fe842783          	lw	a5,-24(s0)
   10204:	fa07d6e3          	bgez	a5,101b0 <umod+0x38>
   10208:	fec42783          	lw	a5,-20(s0)
   1020c:	00078513          	mv	a0,a5
   10210:	02c12083          	lw	ra,44(sp)
   10214:	02812403          	lw	s0,40(sp)
   10218:	03010113          	addi	sp,sp,48
   1021c:	00008067          	ret

00010220 <umul>:
   10220:	fd010113          	addi	sp,sp,-48
   10224:	02112623          	sw	ra,44(sp)
   10228:	02812423          	sw	s0,40(sp)
   1022c:	03010413          	addi	s0,sp,48
   10230:	fca42e23          	sw	a0,-36(s0)
   10234:	fcb42c23          	sw	a1,-40(s0)
   10238:	fe042623          	sw	zero,-20(s0)
   1023c:	0380006f          	j	10274 <umul+0x54>
   10240:	fd842783          	lw	a5,-40(s0)
   10244:	0017f793          	andi	a5,a5,1
   10248:	00078a63          	beqz	a5,1025c <umul+0x3c>
   1024c:	fec42703          	lw	a4,-20(s0)
   10250:	fdc42783          	lw	a5,-36(s0)
   10254:	00f707b3          	add	a5,a4,a5
   10258:	fef42623          	sw	a5,-20(s0)
   1025c:	fdc42783          	lw	a5,-36(s0)
   10260:	00179793          	slli	a5,a5,0x1
   10264:	fcf42e23          	sw	a5,-36(s0)
   10268:	fd842783          	lw	a5,-40(s0)
   1026c:	0017d793          	srli	a5,a5,0x1
   10270:	fcf42c23          	sw	a5,-40(s0)
   10274:	fd842783          	lw	a5,-40(s0)
   10278:	fc0794e3          	bnez	a5,10240 <umul+0x20>
   1027c:	fec42783          	lw	a5,-20(s0)
   10280:	00078513          	mv	a0,a5
   10284:	02c12083          	lw	ra,44(sp)
   10288:	02812403          	lw	s0,40(sp)
   1028c:	03010113          	addi	sp,sp,48
   10290:	00008067          	ret

00010294 <__mulsi3>:
   10294:	fe010113          	addi	sp,sp,-32
   10298:	00112e23          	sw	ra,28(sp)
   1029c:	00812c23          	sw	s0,24(sp)
   102a0:	02010413          	addi	s0,sp,32
   102a4:	fea42623          	sw	a0,-20(s0)
   102a8:	feb42423          	sw	a1,-24(s0)
   102ac:	fe842583          	lw	a1,-24(s0)
   102b0:	fec42503          	lw	a0,-20(s0)
   102b4:	f6dff0ef          	jal	10220 <umul>
   102b8:	00050793          	mv	a5,a0
   102bc:	00078513          	mv	a0,a5
   102c0:	01c12083          	lw	ra,28(sp)
   102c4:	01812403          	lw	s0,24(sp)
   102c8:	02010113          	addi	sp,sp,32
   102cc:	00008067          	ret

000102d0 <print_hex>:
   102d0:	fc010113          	addi	sp,sp,-64
   102d4:	02112e23          	sw	ra,60(sp)
   102d8:	02812c23          	sw	s0,56(sp)
   102dc:	04010413          	addi	s0,sp,64
   102e0:	fca42623          	sw	a0,-52(s0)
   102e4:	fd440793          	addi	a5,s0,-44
   102e8:	01378793          	addi	a5,a5,19
   102ec:	fef42623          	sw	a5,-20(s0)
   102f0:	fec42783          	lw	a5,-20(s0)
   102f4:	fff78713          	addi	a4,a5,-1
   102f8:	fee42623          	sw	a4,-20(s0)
   102fc:	00a00713          	li	a4,10
   10300:	00e78023          	sb	a4,0(a5)
   10304:	fcc42783          	lw	a5,-52(s0)
   10308:	06079a63          	bnez	a5,1037c <print_hex+0xac>
   1030c:	fec42783          	lw	a5,-20(s0)
   10310:	fff78713          	addi	a4,a5,-1
   10314:	fee42623          	sw	a4,-20(s0)
   10318:	03000713          	li	a4,48
   1031c:	00e78023          	sb	a4,0(a5)
   10320:	0640006f          	j	10384 <print_hex+0xb4>
   10324:	fcc42783          	lw	a5,-52(s0)
   10328:	00f7f793          	andi	a5,a5,15
   1032c:	fef42423          	sw	a5,-24(s0)
   10330:	fe842703          	lw	a4,-24(s0)
   10334:	00900793          	li	a5,9
   10338:	00e7cc63          	blt	a5,a4,10350 <print_hex+0x80>
   1033c:	fe842783          	lw	a5,-24(s0)
   10340:	0ff7f793          	zext.b	a5,a5
   10344:	03078793          	addi	a5,a5,48
   10348:	0ff7f713          	zext.b	a4,a5
   1034c:	0140006f          	j	10360 <print_hex+0x90>
   10350:	fe842783          	lw	a5,-24(s0)
   10354:	0ff7f793          	zext.b	a5,a5
   10358:	05778793          	addi	a5,a5,87
   1035c:	0ff7f713          	zext.b	a4,a5
   10360:	fec42783          	lw	a5,-20(s0)
   10364:	fff78693          	addi	a3,a5,-1
   10368:	fed42623          	sw	a3,-20(s0)
   1036c:	00e78023          	sb	a4,0(a5)
   10370:	fcc42783          	lw	a5,-52(s0)
   10374:	0047d793          	srli	a5,a5,0x4
   10378:	fcf42623          	sw	a5,-52(s0)
   1037c:	fcc42783          	lw	a5,-52(s0)
   10380:	fa0792e3          	bnez	a5,10324 <print_hex+0x54>
   10384:	fec42783          	lw	a5,-20(s0)
   10388:	00178793          	addi	a5,a5,1
   1038c:	fef42623          	sw	a5,-20(s0)
   10390:	fd440793          	addi	a5,s0,-44
   10394:	01478793          	addi	a5,a5,20
   10398:	fec42703          	lw	a4,-20(s0)
   1039c:	40e78733          	sub	a4,a5,a4
   103a0:	fec42783          	lw	a5,-20(s0)
   103a4:	04000893          	li	a7,64
   103a8:	00100513          	li	a0,1
   103ac:	00f005b3          	add	a1,zero,a5
   103b0:	00070613          	mv	a2,a4
   103b4:	00000073          	ecall
   103b8:	00000013          	nop
   103bc:	03c12083          	lw	ra,60(sp)
   103c0:	03812403          	lw	s0,56(sp)
   103c4:	04010113          	addi	sp,sp,64
   103c8:	00008067          	ret

000103cc <print_dec>:
   103cc:	fc010113          	addi	sp,sp,-64
   103d0:	02112e23          	sw	ra,60(sp)
   103d4:	02812c23          	sw	s0,56(sp)
   103d8:	04010413          	addi	s0,sp,64
   103dc:	fca42623          	sw	a0,-52(s0)
   103e0:	fd840793          	addi	a5,s0,-40
   103e4:	01378793          	addi	a5,a5,19
   103e8:	fef42623          	sw	a5,-20(s0)
   103ec:	fec42783          	lw	a5,-20(s0)
   103f0:	fff78713          	addi	a4,a5,-1
   103f4:	fee42623          	sw	a4,-20(s0)
   103f8:	00a00713          	li	a4,10
   103fc:	00e78023          	sb	a4,0(a5)
   10400:	fcc42783          	lw	a5,-52(s0)
   10404:	04079c63          	bnez	a5,1045c <print_dec+0x90>
   10408:	fec42783          	lw	a5,-20(s0)
   1040c:	fff78713          	addi	a4,a5,-1
   10410:	fee42623          	sw	a4,-20(s0)
   10414:	03000713          	li	a4,48
   10418:	00e78023          	sb	a4,0(a5)
   1041c:	0480006f          	j	10464 <print_dec+0x98>
   10420:	00a00593          	li	a1,10
   10424:	fcc42503          	lw	a0,-52(s0)
   10428:	d51ff0ef          	jal	10178 <umod>
   1042c:	00050793          	mv	a5,a0
   10430:	0ff7f713          	zext.b	a4,a5
   10434:	fec42783          	lw	a5,-20(s0)
   10438:	fff78693          	addi	a3,a5,-1
   1043c:	fed42623          	sw	a3,-20(s0)
   10440:	03070713          	addi	a4,a4,48
   10444:	0ff77713          	zext.b	a4,a4
   10448:	00e78023          	sb	a4,0(a5)
   1044c:	00a00593          	li	a1,10
   10450:	fcc42503          	lw	a0,-52(s0)
   10454:	c61ff0ef          	jal	100b4 <udiv>
   10458:	fca42623          	sw	a0,-52(s0)
   1045c:	fcc42783          	lw	a5,-52(s0)
   10460:	fc0790e3          	bnez	a5,10420 <print_dec+0x54>
   10464:	fec42783          	lw	a5,-20(s0)
   10468:	00178793          	addi	a5,a5,1
   1046c:	fef42623          	sw	a5,-20(s0)
   10470:	fd840793          	addi	a5,s0,-40
   10474:	01478793          	addi	a5,a5,20
   10478:	fec42703          	lw	a4,-20(s0)
   1047c:	40e78733          	sub	a4,a5,a4
   10480:	fec42783          	lw	a5,-20(s0)
   10484:	04000893          	li	a7,64
   10488:	00100513          	li	a0,1
   1048c:	00f005b3          	add	a1,zero,a5
   10490:	00070613          	mv	a2,a4
   10494:	00000073          	ecall
   10498:	00000013          	nop
   1049c:	03c12083          	lw	ra,60(sp)
   104a0:	03812403          	lw	s0,56(sp)
   104a4:	04010113          	addi	sp,sp,64
   104a8:	00008067          	ret

000104ac <print_dec_raw>:
   104ac:	fc010113          	addi	sp,sp,-64
   104b0:	02112e23          	sw	ra,60(sp)
   104b4:	02812c23          	sw	s0,56(sp)
   104b8:	04010413          	addi	s0,sp,64
   104bc:	fca42623          	sw	a0,-52(s0)
   104c0:	fd840793          	addi	a5,s0,-40
   104c4:	01378793          	addi	a5,a5,19
   104c8:	fef42623          	sw	a5,-20(s0)
   104cc:	fcc42783          	lw	a5,-52(s0)
   104d0:	04079c63          	bnez	a5,10528 <print_dec_raw+0x7c>
   104d4:	fec42783          	lw	a5,-20(s0)
   104d8:	fff78713          	addi	a4,a5,-1
   104dc:	fee42623          	sw	a4,-20(s0)
   104e0:	03000713          	li	a4,48
   104e4:	00e78023          	sb	a4,0(a5)
   104e8:	0480006f          	j	10530 <print_dec_raw+0x84>
   104ec:	00a00593          	li	a1,10
   104f0:	fcc42503          	lw	a0,-52(s0)
   104f4:	c85ff0ef          	jal	10178 <umod>
   104f8:	00050793          	mv	a5,a0
   104fc:	0ff7f713          	zext.b	a4,a5
   10500:	fec42783          	lw	a5,-20(s0)
   10504:	fff78693          	addi	a3,a5,-1
   10508:	fed42623          	sw	a3,-20(s0)
   1050c:	03070713          	addi	a4,a4,48
   10510:	0ff77713          	zext.b	a4,a4
   10514:	00e78023          	sb	a4,0(a5)
   10518:	00a00593          	li	a1,10
   1051c:	fcc42503          	lw	a0,-52(s0)
   10520:	b95ff0ef          	jal	100b4 <udiv>
   10524:	fca42623          	sw	a0,-52(s0)
   10528:	fcc42783          	lw	a5,-52(s0)
   1052c:	fc0790e3          	bnez	a5,104ec <print_dec_raw+0x40>
   10530:	fec42783          	lw	a5,-20(s0)
   10534:	00178793          	addi	a5,a5,1
   10538:	fef42623          	sw	a5,-20(s0)
   1053c:	fd840793          	addi	a5,s0,-40
   10540:	01478793          	addi	a5,a5,20
   10544:	fec42703          	lw	a4,-20(s0)
   10548:	40e78733          	sub	a4,a5,a4
   1054c:	fec42783          	lw	a5,-20(s0)
   10550:	04000893          	li	a7,64
   10554:	00100513          	li	a0,1
   10558:	00f005b3          	add	a1,zero,a5
   1055c:	00070613          	mv	a2,a4
   10560:	00000073          	ecall
   10564:	00000013          	nop
   10568:	03c12083          	lw	ra,60(sp)
   1056c:	03812403          	lw	s0,56(sp)
   10570:	04010113          	addi	sp,sp,64
   10574:	00008067          	ret

00010578 <str_len>:
   10578:	fd010113          	addi	sp,sp,-48
   1057c:	02112623          	sw	ra,44(sp)
   10580:	02812423          	sw	s0,40(sp)
   10584:	03010413          	addi	s0,sp,48
   10588:	fca42e23          	sw	a0,-36(s0)
   1058c:	fdc42783          	lw	a5,-36(s0)
   10590:	fef42623          	sw	a5,-20(s0)
   10594:	0100006f          	j	105a4 <str_len+0x2c>
   10598:	fec42783          	lw	a5,-20(s0)
   1059c:	00178793          	addi	a5,a5,1
   105a0:	fef42623          	sw	a5,-20(s0)
   105a4:	fec42783          	lw	a5,-20(s0)
   105a8:	0007c783          	lbu	a5,0(a5)
   105ac:	fe0796e3          	bnez	a5,10598 <str_len+0x20>
   105b0:	fec42703          	lw	a4,-20(s0)
   105b4:	fdc42783          	lw	a5,-36(s0)
   105b8:	40f707b3          	sub	a5,a4,a5
   105bc:	00078513          	mv	a0,a5
   105c0:	02c12083          	lw	ra,44(sp)
   105c4:	02812403          	lw	s0,40(sp)
   105c8:	03010113          	addi	sp,sp,48
   105cc:	00008067          	ret

000105d0 <report_result>:
   105d0:	f8010113          	addi	sp,sp,-128
   105d4:	06112e23          	sw	ra,124(sp)
   105d8:	06812c23          	sw	s0,120(sp)
   105dc:	08010413          	addi	s0,sp,128
   105e0:	f8a42623          	sw	a0,-116(s0)
   105e4:	f8b42423          	sw	a1,-120(s0)
   105e8:	f8c42223          	sw	a2,-124(s0)
   105ec:	f8d42023          	sw	a3,-128(s0)
   105f0:	000117b7          	lui	a5,0x11
   105f4:	3a878793          	addi	a5,a5,936 # 113a8 <fast_rsqrt+0x2b0>
   105f8:	0007a603          	lw	a2,0(a5)
   105fc:	0047a683          	lw	a3,4(a5)
   10600:	0087a703          	lw	a4,8(a5)
   10604:	fcc42823          	sw	a2,-48(s0)
   10608:	fcd42a23          	sw	a3,-44(s0)
   1060c:	fce42c23          	sw	a4,-40(s0)
   10610:	00c7d783          	lhu	a5,12(a5)
   10614:	fcf41e23          	sh	a5,-36(s0)
   10618:	fd040793          	addi	a5,s0,-48
   1061c:	00d00713          	li	a4,13
   10620:	04000893          	li	a7,64
   10624:	00100513          	li	a0,1
   10628:	00f005b3          	add	a1,zero,a5
   1062c:	00070613          	mv	a2,a4
   10630:	00000073          	ecall
   10634:	f8c42503          	lw	a0,-116(s0)
   10638:	e75ff0ef          	jal	104ac <print_dec_raw>
   1063c:	203d27b7          	lui	a5,0x203d2
   10640:	02978793          	addi	a5,a5,41 # 203d2029 <__stack_top+0x203bf9e9>
   10644:	fcf42423          	sw	a5,-56(s0)
   10648:	fc040623          	sb	zero,-52(s0)
   1064c:	fc840793          	addi	a5,s0,-56
   10650:	00400713          	li	a4,4
   10654:	04000893          	li	a7,64
   10658:	00100513          	li	a0,1
   1065c:	00f005b3          	add	a1,zero,a5
   10660:	00070613          	mv	a2,a4
   10664:	00000073          	ecall
   10668:	f8842503          	lw	a0,-120(s0)
   1066c:	e41ff0ef          	jal	104ac <print_dec_raw>
   10670:	000117b7          	lui	a5,0x11
   10674:	3b878793          	addi	a5,a5,952 # 113b8 <fast_rsqrt+0x2c0>
   10678:	0007a603          	lw	a2,0(a5)
   1067c:	0047a683          	lw	a3,4(a5)
   10680:	0087a703          	lw	a4,8(a5)
   10684:	fac42c23          	sw	a2,-72(s0)
   10688:	fad42e23          	sw	a3,-68(s0)
   1068c:	fce42023          	sw	a4,-64(s0)
   10690:	00c7d783          	lhu	a5,12(a5)
   10694:	fcf41223          	sh	a5,-60(s0)
   10698:	fb840793          	addi	a5,s0,-72
   1069c:	00d00713          	li	a4,13
   106a0:	04000893          	li	a7,64
   106a4:	00100513          	li	a0,1
   106a8:	00f005b3          	add	a1,zero,a5
   106ac:	00070613          	mv	a2,a4
   106b0:	00000073          	ecall
   106b4:	f8042503          	lw	a0,-128(s0)
   106b8:	ec1ff0ef          	jal	10578 <str_len>
   106bc:	00050713          	mv	a4,a0
   106c0:	f8042783          	lw	a5,-128(s0)
   106c4:	04000893          	li	a7,64
   106c8:	00100513          	li	a0,1
   106cc:	00f005b3          	add	a1,zero,a5
   106d0:	00070613          	mv	a2,a4
   106d4:	00000073          	ecall
   106d8:	02900793          	li	a5,41
   106dc:	faf41a23          	sh	a5,-76(s0)
   106e0:	fb440793          	addi	a5,s0,-76
   106e4:	00100713          	li	a4,1
   106e8:	04000893          	li	a7,64
   106ec:	00100513          	li	a0,1
   106f0:	00f005b3          	add	a1,zero,a5
   106f4:	00070613          	mv	a2,a4
   106f8:	00000073          	ecall
   106fc:	06400593          	li	a1,100
   10700:	f8842503          	lw	a0,-120(s0)
   10704:	b1dff0ef          	jal	10220 <umul>
   10708:	fea42623          	sw	a0,-20(s0)
   1070c:	fec42703          	lw	a4,-20(s0)
   10710:	f8442783          	lw	a5,-124(s0)
   10714:	00e7fa63          	bgeu	a5,a4,10728 <report_result+0x158>
   10718:	fec42703          	lw	a4,-20(s0)
   1071c:	f8442783          	lw	a5,-124(s0)
   10720:	40f707b3          	sub	a5,a4,a5
   10724:	0100006f          	j	10734 <report_result+0x164>
   10728:	f8442703          	lw	a4,-124(s0)
   1072c:	fec42783          	lw	a5,-20(s0)
   10730:	40f707b3          	sub	a5,a4,a5
   10734:	fef42423          	sw	a5,-24(s0)
   10738:	06400593          	li	a1,100
   1073c:	fe842503          	lw	a0,-24(s0)
   10740:	ae1ff0ef          	jal	10220 <umul>
   10744:	fea42423          	sw	a0,-24(s0)
   10748:	f8442583          	lw	a1,-124(s0)
   1074c:	fe842503          	lw	a0,-24(s0)
   10750:	a29ff0ef          	jal	10178 <umod>
   10754:	fea42223          	sw	a0,-28(s0)
   10758:	f8442583          	lw	a1,-124(s0)
   1075c:	fe842503          	lw	a0,-24(s0)
   10760:	955ff0ef          	jal	100b4 <udiv>
   10764:	fea42023          	sw	a0,-32(s0)
   10768:	726527b7          	lui	a5,0x72652
   1076c:	02c78793          	addi	a5,a5,44 # 7265202c <__stack_top+0x7263f9ec>
   10770:	faf42223          	sw	a5,-92(s0)
   10774:	207277b7          	lui	a5,0x20727
   10778:	f7278793          	addi	a5,a5,-142 # 20726f72 <__stack_top+0x20714932>
   1077c:	faf42423          	sw	a5,-88(s0)
   10780:	208897b7          	lui	a5,0x20889
   10784:	9e278793          	addi	a5,a5,-1566 # 208889e2 <__stack_top+0x208763a2>
   10788:	faf42623          	sw	a5,-84(s0)
   1078c:	fa040823          	sb	zero,-80(s0)
   10790:	fa440793          	addi	a5,s0,-92
   10794:	00c00713          	li	a4,12
   10798:	04000893          	li	a7,64
   1079c:	00100513          	li	a0,1
   107a0:	00f005b3          	add	a1,zero,a5
   107a4:	00070613          	mv	a2,a4
   107a8:	00000073          	ecall
   107ac:	fe042503          	lw	a0,-32(s0)
   107b0:	cfdff0ef          	jal	104ac <print_dec_raw>
   107b4:	722827b7          	lui	a5,0x72282
   107b8:	02578793          	addi	a5,a5,37 # 72282025 <__stack_top+0x7226f9e5>
   107bc:	f8f42c23          	sw	a5,-104(s0)
   107c0:	3d2077b7          	lui	a5,0x3d207
   107c4:	d6578793          	addi	a5,a5,-667 # 3d206d65 <__stack_top+0x3d1f4725>
   107c8:	f8f42e23          	sw	a5,-100(s0)
   107cc:	02000793          	li	a5,32
   107d0:	faf41023          	sh	a5,-96(s0)
   107d4:	f9840793          	addi	a5,s0,-104
   107d8:	00900713          	li	a4,9
   107dc:	04000893          	li	a7,64
   107e0:	00100513          	li	a0,1
   107e4:	00f005b3          	add	a1,zero,a5
   107e8:	00070613          	mv	a2,a4
   107ec:	00000073          	ecall
   107f0:	fe442503          	lw	a0,-28(s0)
   107f4:	cb9ff0ef          	jal	104ac <print_dec_raw>
   107f8:	02f00793          	li	a5,47
   107fc:	f8f41a23          	sh	a5,-108(s0)
   10800:	f9440793          	addi	a5,s0,-108
   10804:	00100713          	li	a4,1
   10808:	04000893          	li	a7,64
   1080c:	00100513          	li	a0,1
   10810:	00f005b3          	add	a1,zero,a5
   10814:	00070613          	mv	a2,a4
   10818:	00000073          	ecall
   1081c:	f8442503          	lw	a0,-124(s0)
   10820:	badff0ef          	jal	103cc <print_dec>
   10824:	00000013          	nop
   10828:	07c12083          	lw	ra,124(sp)
   1082c:	07812403          	lw	s0,120(sp)
   10830:	08010113          	addi	sp,sp,128
   10834:	00008067          	ret

00010838 <run_tests>:
   10838:	e9010113          	addi	sp,sp,-368
   1083c:	16112623          	sw	ra,364(sp)
   10840:	16812423          	sw	s0,360(sp)
   10844:	17010413          	addi	s0,sp,368
   10848:	000117b7          	lui	a5,0x11
   1084c:	3c878793          	addi	a5,a5,968 # 113c8 <fast_rsqrt+0x2d0>
   10850:	0007a303          	lw	t1,0(a5)
   10854:	0047a883          	lw	a7,4(a5)
   10858:	0087a803          	lw	a6,8(a5)
   1085c:	00c7a503          	lw	a0,12(a5)
   10860:	0107a583          	lw	a1,16(a5)
   10864:	0147a603          	lw	a2,20(a5)
   10868:	0187a683          	lw	a3,24(a5)
   1086c:	01c7a703          	lw	a4,28(a5)
   10870:	0207a783          	lw	a5,32(a5)
   10874:	e8642c23          	sw	t1,-360(s0)
   10878:	e9142e23          	sw	a7,-356(s0)
   1087c:	eb042023          	sw	a6,-352(s0)
   10880:	eaa42223          	sw	a0,-348(s0)
   10884:	eab42423          	sw	a1,-344(s0)
   10888:	eac42623          	sw	a2,-340(s0)
   1088c:	ead42823          	sw	a3,-336(s0)
   10890:	eae42a23          	sw	a4,-332(s0)
   10894:	eaf42c23          	sw	a5,-328(s0)
   10898:	e9840793          	addi	a5,s0,-360
   1089c:	02300713          	li	a4,35
   108a0:	04000893          	li	a7,64
   108a4:	00100513          	li	a0,1
   108a8:	00f005b3          	add	a1,zero,a5
   108ac:	00070613          	mv	a2,a4
   108b0:	00000073          	ecall
   108b4:	000117b7          	lui	a5,0x11
   108b8:	3ec78713          	addi	a4,a5,1004 # 113ec <fast_rsqrt+0x2f4>
   108bc:	e9840793          	addi	a5,s0,-360
   108c0:	00070693          	mv	a3,a4
   108c4:	03f00713          	li	a4,63
   108c8:	00070613          	mv	a2,a4
   108cc:	00068593          	mv	a1,a3
   108d0:	00078513          	mv	a0,a5
   108d4:	f68ff0ef          	jal	1003c <memcpy>
   108d8:	e9840793          	addi	a5,s0,-360
   108dc:	03e00713          	li	a4,62
   108e0:	04000893          	li	a7,64
   108e4:	00100513          	li	a0,1
   108e8:	00f005b3          	add	a1,zero,a5
   108ec:	00070613          	mv	a2,a4
   108f0:	00000073          	ecall
   108f4:	000117b7          	lui	a5,0x11
   108f8:	42c78793          	addi	a5,a5,1068 # 1142c <fast_rsqrt+0x334>
   108fc:	0007ae83          	lw	t4,0(a5)
   10900:	0047ae03          	lw	t3,4(a5)
   10904:	0087a303          	lw	t1,8(a5)
   10908:	00c7a883          	lw	a7,12(a5)
   1090c:	0107a803          	lw	a6,16(a5)
   10910:	0147a503          	lw	a0,20(a5)
   10914:	0187a583          	lw	a1,24(a5)
   10918:	01c7a603          	lw	a2,28(a5)
   1091c:	0207a683          	lw	a3,32(a5)
   10920:	0247a703          	lw	a4,36(a5)
   10924:	e9d42c23          	sw	t4,-360(s0)
   10928:	e9c42e23          	sw	t3,-356(s0)
   1092c:	ea642023          	sw	t1,-352(s0)
   10930:	eb142223          	sw	a7,-348(s0)
   10934:	eb042423          	sw	a6,-344(s0)
   10938:	eaa42623          	sw	a0,-340(s0)
   1093c:	eab42823          	sw	a1,-336(s0)
   10940:	eac42a23          	sw	a2,-332(s0)
   10944:	ead42c23          	sw	a3,-328(s0)
   10948:	eae42e23          	sw	a4,-324(s0)
   1094c:	0287d783          	lhu	a5,40(a5)
   10950:	ecf41023          	sh	a5,-320(s0)
   10954:	e9840793          	addi	a5,s0,-360
   10958:	02900713          	li	a4,41
   1095c:	04000893          	li	a7,64
   10960:	00100513          	li	a0,1
   10964:	00f005b3          	add	a1,zero,a5
   10968:	00070613          	mv	a2,a4
   1096c:	00000073          	ecall
   10970:	000117b7          	lui	a5,0x11
   10974:	45878793          	addi	a5,a5,1112 # 11458 <fast_rsqrt+0x360>
   10978:	0007a803          	lw	a6,0(a5)
   1097c:	0047a503          	lw	a0,4(a5)
   10980:	0087a583          	lw	a1,8(a5)
   10984:	00c7a603          	lw	a2,12(a5)
   10988:	0107a683          	lw	a3,16(a5)
   1098c:	0147a703          	lw	a4,20(a5)
   10990:	0187a783          	lw	a5,24(a5)
   10994:	f7042e23          	sw	a6,-132(s0)
   10998:	f8a42023          	sw	a0,-128(s0)
   1099c:	f8b42223          	sw	a1,-124(s0)
   109a0:	f8c42423          	sw	a2,-120(s0)
   109a4:	f8d42623          	sw	a3,-116(s0)
   109a8:	f8e42823          	sw	a4,-112(s0)
   109ac:	f8f42a23          	sw	a5,-108(s0)
   109b0:	000117b7          	lui	a5,0x11
   109b4:	4b878793          	addi	a5,a5,1208 # 114b8 <fast_rsqrt+0x3c0>
   109b8:	0007a803          	lw	a6,0(a5)
   109bc:	0047a503          	lw	a0,4(a5)
   109c0:	0087a583          	lw	a1,8(a5)
   109c4:	00c7a603          	lw	a2,12(a5)
   109c8:	0107a683          	lw	a3,16(a5)
   109cc:	0147a703          	lw	a4,20(a5)
   109d0:	0187a783          	lw	a5,24(a5)
   109d4:	f7042023          	sw	a6,-160(s0)
   109d8:	f6a42223          	sw	a0,-156(s0)
   109dc:	f6b42423          	sw	a1,-152(s0)
   109e0:	f6c42623          	sw	a2,-148(s0)
   109e4:	f6d42823          	sw	a3,-144(s0)
   109e8:	f6e42a23          	sw	a4,-140(s0)
   109ec:	f6f42c23          	sw	a5,-136(s0)
   109f0:	000117b7          	lui	a5,0x11
   109f4:	4d478793          	addi	a5,a5,1236 # 114d4 <fast_rsqrt+0x3dc>
   109f8:	0007a803          	lw	a6,0(a5)
   109fc:	0047a503          	lw	a0,4(a5)
   10a00:	0087a583          	lw	a1,8(a5)
   10a04:	00c7a603          	lw	a2,12(a5)
   10a08:	0107a683          	lw	a3,16(a5)
   10a0c:	0147a703          	lw	a4,20(a5)
   10a10:	0187a783          	lw	a5,24(a5)
   10a14:	f5042223          	sw	a6,-188(s0)
   10a18:	f4a42423          	sw	a0,-184(s0)
   10a1c:	f4b42623          	sw	a1,-180(s0)
   10a20:	f4c42823          	sw	a2,-176(s0)
   10a24:	f4d42a23          	sw	a3,-172(s0)
   10a28:	f4e42c23          	sw	a4,-168(s0)
   10a2c:	f4f42e23          	sw	a5,-164(s0)
   10a30:	00700793          	li	a5,7
   10a34:	fcf42c23          	sw	a5,-40(s0)
   10a38:	00000793          	li	a5,0
   10a3c:	00000813          	li	a6,0
   10a40:	fef42423          	sw	a5,-24(s0)
   10a44:	ff042623          	sw	a6,-20(s0)
   10a48:	fef42023          	sw	a5,-32(s0)
   10a4c:	ff042223          	sw	a6,-28(s0)
   10a50:	fc042e23          	sw	zero,-36(s0)
   10a54:	2040006f          	j	10c58 <run_tests+0x420>
   10a58:	fdc42703          	lw	a4,-36(s0)
   10a5c:	f7c40793          	addi	a5,s0,-132
   10a60:	00271713          	slli	a4,a4,0x2
   10a64:	00f707b3          	add	a5,a4,a5
   10a68:	0007a783          	lw	a5,0(a5)
   10a6c:	fcf42a23          	sw	a5,-44(s0)
   10a70:	518000ef          	jal	10f88 <get_cycles>
   10a74:	fca42423          	sw	a0,-56(s0)
   10a78:	fcb42623          	sw	a1,-52(s0)
   10a7c:	520000ef          	jal	10f9c <get_instret>
   10a80:	fca42023          	sw	a0,-64(s0)
   10a84:	fcb42223          	sw	a1,-60(s0)
   10a88:	fd442503          	lw	a0,-44(s0)
   10a8c:	66c000ef          	jal	110f8 <fast_rsqrt>
   10a90:	faa42e23          	sw	a0,-68(s0)
   10a94:	4f4000ef          	jal	10f88 <get_cycles>
   10a98:	faa42823          	sw	a0,-80(s0)
   10a9c:	fab42a23          	sw	a1,-76(s0)
   10aa0:	4fc000ef          	jal	10f9c <get_instret>
   10aa4:	faa42423          	sw	a0,-88(s0)
   10aa8:	fab42623          	sw	a1,-84(s0)
   10aac:	fb042603          	lw	a2,-80(s0)
   10ab0:	fb442683          	lw	a3,-76(s0)
   10ab4:	fc842503          	lw	a0,-56(s0)
   10ab8:	fcc42583          	lw	a1,-52(s0)
   10abc:	40a60733          	sub	a4,a2,a0
   10ac0:	00070813          	mv	a6,a4
   10ac4:	01063833          	sltu	a6,a2,a6
   10ac8:	40b687b3          	sub	a5,a3,a1
   10acc:	410786b3          	sub	a3,a5,a6
   10ad0:	00068793          	mv	a5,a3
   10ad4:	fae42023          	sw	a4,-96(s0)
   10ad8:	faf42223          	sw	a5,-92(s0)
   10adc:	fa842603          	lw	a2,-88(s0)
   10ae0:	fac42683          	lw	a3,-84(s0)
   10ae4:	fc042503          	lw	a0,-64(s0)
   10ae8:	fc442583          	lw	a1,-60(s0)
   10aec:	40a60733          	sub	a4,a2,a0
   10af0:	00070813          	mv	a6,a4
   10af4:	01063833          	sltu	a6,a2,a6
   10af8:	40b687b3          	sub	a5,a3,a1
   10afc:	410786b3          	sub	a3,a5,a6
   10b00:	00068793          	mv	a5,a3
   10b04:	f8e42c23          	sw	a4,-104(s0)
   10b08:	f8f42e23          	sw	a5,-100(s0)
   10b0c:	fe842603          	lw	a2,-24(s0)
   10b10:	fec42683          	lw	a3,-20(s0)
   10b14:	fa042503          	lw	a0,-96(s0)
   10b18:	fa442583          	lw	a1,-92(s0)
   10b1c:	00a60733          	add	a4,a2,a0
   10b20:	00070813          	mv	a6,a4
   10b24:	00c83833          	sltu	a6,a6,a2
   10b28:	00b687b3          	add	a5,a3,a1
   10b2c:	00f806b3          	add	a3,a6,a5
   10b30:	00068793          	mv	a5,a3
   10b34:	fee42423          	sw	a4,-24(s0)
   10b38:	fef42623          	sw	a5,-20(s0)
   10b3c:	fe042603          	lw	a2,-32(s0)
   10b40:	fe442683          	lw	a3,-28(s0)
   10b44:	f9842503          	lw	a0,-104(s0)
   10b48:	f9c42583          	lw	a1,-100(s0)
   10b4c:	00a60733          	add	a4,a2,a0
   10b50:	00070813          	mv	a6,a4
   10b54:	00c83833          	sltu	a6,a6,a2
   10b58:	00b687b3          	add	a5,a3,a1
   10b5c:	00f806b3          	add	a3,a6,a5
   10b60:	00068793          	mv	a5,a3
   10b64:	fee42023          	sw	a4,-32(s0)
   10b68:	fef42223          	sw	a5,-28(s0)
   10b6c:	fdc42703          	lw	a4,-36(s0)
   10b70:	f4440793          	addi	a5,s0,-188
   10b74:	00271713          	slli	a4,a4,0x2
   10b78:	00f707b3          	add	a5,a4,a5
   10b7c:	0007a603          	lw	a2,0(a5)
   10b80:	fdc42703          	lw	a4,-36(s0)
   10b84:	f6040793          	addi	a5,s0,-160
   10b88:	00271713          	slli	a4,a4,0x2
   10b8c:	00f707b3          	add	a5,a4,a5
   10b90:	0007a783          	lw	a5,0(a5)
   10b94:	00078693          	mv	a3,a5
   10b98:	fbc42583          	lw	a1,-68(s0)
   10b9c:	fd442503          	lw	a0,-44(s0)
   10ba0:	a31ff0ef          	jal	105d0 <report_result>
   10ba4:	202027b7          	lui	a5,0x20202
   10ba8:	02078793          	addi	a5,a5,32 # 20202020 <__stack_top+0x201ef9e0>
   10bac:	f2f42a23          	sw	a5,-204(s0)
   10bb0:	6c6387b7          	lui	a5,0x6c638
   10bb4:	96378793          	addi	a5,a5,-1693 # 6c637963 <__stack_top+0x6c625323>
   10bb8:	f2f42c23          	sw	a5,-200(s0)
   10bbc:	203a77b7          	lui	a5,0x203a7
   10bc0:	36578793          	addi	a5,a5,869 # 203a7365 <__stack_top+0x20394d25>
   10bc4:	f2f42e23          	sw	a5,-196(s0)
   10bc8:	f4040023          	sb	zero,-192(s0)
   10bcc:	f3440793          	addi	a5,s0,-204
   10bd0:	00c00713          	li	a4,12
   10bd4:	04000893          	li	a7,64
   10bd8:	00100513          	li	a0,1
   10bdc:	00f005b3          	add	a1,zero,a5
   10be0:	00070613          	mv	a2,a4
   10be4:	00000073          	ecall
   10be8:	fa042783          	lw	a5,-96(s0)
   10bec:	00078513          	mv	a0,a5
   10bf0:	8bdff0ef          	jal	104ac <print_dec_raw>
   10bf4:	000117b7          	lui	a5,0x11
   10bf8:	4f078793          	addi	a5,a5,1264 # 114f0 <fast_rsqrt+0x3f8>
   10bfc:	0007a583          	lw	a1,0(a5)
   10c00:	0047a603          	lw	a2,4(a5)
   10c04:	0087a683          	lw	a3,8(a5)
   10c08:	00c7a703          	lw	a4,12(a5)
   10c0c:	f2b42023          	sw	a1,-224(s0)
   10c10:	f2c42223          	sw	a2,-220(s0)
   10c14:	f2d42423          	sw	a3,-216(s0)
   10c18:	f2e42623          	sw	a4,-212(s0)
   10c1c:	0107c783          	lbu	a5,16(a5)
   10c20:	f2f40823          	sb	a5,-208(s0)
   10c24:	f2040793          	addi	a5,s0,-224
   10c28:	01000713          	li	a4,16
   10c2c:	04000893          	li	a7,64
   10c30:	00100513          	li	a0,1
   10c34:	00f005b3          	add	a1,zero,a5
   10c38:	00070613          	mv	a2,a4
   10c3c:	00000073          	ecall
   10c40:	f9842783          	lw	a5,-104(s0)
   10c44:	00078513          	mv	a0,a5
   10c48:	f84ff0ef          	jal	103cc <print_dec>
   10c4c:	fdc42783          	lw	a5,-36(s0)
   10c50:	00178793          	addi	a5,a5,1
   10c54:	fcf42e23          	sw	a5,-36(s0)
   10c58:	fdc42703          	lw	a4,-36(s0)
   10c5c:	fd842783          	lw	a5,-40(s0)
   10c60:	def74ce3          	blt	a4,a5,10a58 <run_tests+0x220>
   10c64:	000117b7          	lui	a5,0x11
   10c68:	50478793          	addi	a5,a5,1284 # 11504 <fast_rsqrt+0x40c>
   10c6c:	0007a803          	lw	a6,0(a5)
   10c70:	0047a503          	lw	a0,4(a5)
   10c74:	0087a583          	lw	a1,8(a5)
   10c78:	00c7a603          	lw	a2,12(a5)
   10c7c:	0107a683          	lw	a3,16(a5)
   10c80:	0147a703          	lw	a4,20(a5)
   10c84:	f1042223          	sw	a6,-252(s0)
   10c88:	f0a42423          	sw	a0,-248(s0)
   10c8c:	f0b42623          	sw	a1,-244(s0)
   10c90:	f0c42823          	sw	a2,-240(s0)
   10c94:	f0d42a23          	sw	a3,-236(s0)
   10c98:	f0e42c23          	sw	a4,-232(s0)
   10c9c:	0187d783          	lhu	a5,24(a5)
   10ca0:	f0f41e23          	sh	a5,-228(s0)
   10ca4:	f0440793          	addi	a5,s0,-252
   10ca8:	01900713          	li	a4,25
   10cac:	04000893          	li	a7,64
   10cb0:	00100513          	li	a0,1
   10cb4:	00f005b3          	add	a1,zero,a5
   10cb8:	00070613          	mv	a2,a4
   10cbc:	00000073          	ecall
   10cc0:	000117b7          	lui	a5,0x11
   10cc4:	52078793          	addi	a5,a5,1312 # 11520 <fast_rsqrt+0x428>
   10cc8:	0007a583          	lw	a1,0(a5)
   10ccc:	0047a603          	lw	a2,4(a5)
   10cd0:	0087a683          	lw	a3,8(a5)
   10cd4:	00c7a703          	lw	a4,12(a5)
   10cd8:	eeb42823          	sw	a1,-272(s0)
   10cdc:	eec42a23          	sw	a2,-268(s0)
   10ce0:	eed42c23          	sw	a3,-264(s0)
   10ce4:	eee42e23          	sw	a4,-260(s0)
   10ce8:	0107c783          	lbu	a5,16(a5)
   10cec:	f0f40023          	sb	a5,-256(s0)
   10cf0:	ef040793          	addi	a5,s0,-272
   10cf4:	01000713          	li	a4,16
   10cf8:	04000893          	li	a7,64
   10cfc:	00100513          	li	a0,1
   10d00:	00f005b3          	add	a1,zero,a5
   10d04:	00070613          	mv	a2,a4
   10d08:	00000073          	ecall
   10d0c:	fe842783          	lw	a5,-24(s0)
   10d10:	00078513          	mv	a0,a5
   10d14:	eb8ff0ef          	jal	103cc <print_dec>
   10d18:	000117b7          	lui	a5,0x11
   10d1c:	53478793          	addi	a5,a5,1332 # 11534 <fast_rsqrt+0x43c>
   10d20:	0007a503          	lw	a0,0(a5)
   10d24:	0047a583          	lw	a1,4(a5)
   10d28:	0087a603          	lw	a2,8(a5)
   10d2c:	00c7a683          	lw	a3,12(a5)
   10d30:	0107a703          	lw	a4,16(a5)
   10d34:	eca42c23          	sw	a0,-296(s0)
   10d38:	ecb42e23          	sw	a1,-292(s0)
   10d3c:	eec42023          	sw	a2,-288(s0)
   10d40:	eed42223          	sw	a3,-284(s0)
   10d44:	eee42423          	sw	a4,-280(s0)
   10d48:	0147d703          	lhu	a4,20(a5)
   10d4c:	eee41623          	sh	a4,-276(s0)
   10d50:	0167c783          	lbu	a5,22(a5)
   10d54:	eef40723          	sb	a5,-274(s0)
   10d58:	ed840793          	addi	a5,s0,-296
   10d5c:	01600713          	li	a4,22
   10d60:	04000893          	li	a7,64
   10d64:	00100513          	li	a0,1
   10d68:	00f005b3          	add	a1,zero,a5
   10d6c:	00070613          	mv	a2,a4
   10d70:	00000073          	ecall
   10d74:	fe042783          	lw	a5,-32(s0)
   10d78:	00078513          	mv	a0,a5
   10d7c:	e50ff0ef          	jal	103cc <print_dec>
   10d80:	00000013          	nop
   10d84:	16c12083          	lw	ra,364(sp)
   10d88:	16812403          	lw	s0,360(sp)
   10d8c:	17010113          	addi	sp,sp,368
   10d90:	00008067          	ret

00010d94 <main>:
   10d94:	f8010113          	addi	sp,sp,-128
   10d98:	06112e23          	sw	ra,124(sp)
   10d9c:	06812c23          	sw	s0,120(sp)
   10da0:	08010413          	addi	s0,sp,128
   10da4:	1e4000ef          	jal	10f88 <get_cycles>
   10da8:	fea42423          	sw	a0,-24(s0)
   10dac:	feb42623          	sw	a1,-20(s0)
   10db0:	1ec000ef          	jal	10f9c <get_instret>
   10db4:	fea42023          	sw	a0,-32(s0)
   10db8:	feb42223          	sw	a1,-28(s0)
   10dbc:	a7dff0ef          	jal	10838 <run_tests>
   10dc0:	1c8000ef          	jal	10f88 <get_cycles>
   10dc4:	fca42c23          	sw	a0,-40(s0)
   10dc8:	fcb42e23          	sw	a1,-36(s0)
   10dcc:	1d0000ef          	jal	10f9c <get_instret>
   10dd0:	fca42823          	sw	a0,-48(s0)
   10dd4:	fcb42a23          	sw	a1,-44(s0)
   10dd8:	000117b7          	lui	a5,0x11
   10ddc:	54c78793          	addi	a5,a5,1356 # 1154c <fast_rsqrt+0x454>
   10de0:	0007ae03          	lw	t3,0(a5)
   10de4:	0047a303          	lw	t1,4(a5)
   10de8:	0087a883          	lw	a7,8(a5)
   10dec:	00c7a803          	lw	a6,12(a5)
   10df0:	0107a503          	lw	a0,16(a5)
   10df4:	0147a583          	lw	a1,20(a5)
   10df8:	0187a603          	lw	a2,24(a5)
   10dfc:	01c7a683          	lw	a3,28(a5)
   10e00:	0207a703          	lw	a4,32(a5)
   10e04:	f9c42423          	sw	t3,-120(s0)
   10e08:	f8642623          	sw	t1,-116(s0)
   10e0c:	f9142823          	sw	a7,-112(s0)
   10e10:	f9042a23          	sw	a6,-108(s0)
   10e14:	f8a42c23          	sw	a0,-104(s0)
   10e18:	f8b42e23          	sw	a1,-100(s0)
   10e1c:	fac42023          	sw	a2,-96(s0)
   10e20:	fad42223          	sw	a3,-92(s0)
   10e24:	fae42423          	sw	a4,-88(s0)
   10e28:	0247c783          	lbu	a5,36(a5)
   10e2c:	faf40623          	sb	a5,-84(s0)
   10e30:	f8840793          	addi	a5,s0,-120
   10e34:	02400713          	li	a4,36
   10e38:	04000893          	li	a7,64
   10e3c:	00100513          	li	a0,1
   10e40:	00f005b3          	add	a1,zero,a5
   10e44:	00070613          	mv	a2,a4
   10e48:	00000073          	ecall
   10e4c:	000117b7          	lui	a5,0x11
   10e50:	57478793          	addi	a5,a5,1396 # 11574 <fast_rsqrt+0x47c>
   10e54:	0007a683          	lw	a3,0(a5)
   10e58:	0047a703          	lw	a4,4(a5)
   10e5c:	fcd42223          	sw	a3,-60(s0)
   10e60:	fce42423          	sw	a4,-56(s0)
   10e64:	0087d703          	lhu	a4,8(a5)
   10e68:	fce41623          	sh	a4,-52(s0)
   10e6c:	00a7c783          	lbu	a5,10(a5)
   10e70:	fcf40723          	sb	a5,-50(s0)
   10e74:	fc440793          	addi	a5,s0,-60
   10e78:	00a00713          	li	a4,10
   10e7c:	04000893          	li	a7,64
   10e80:	00100513          	li	a0,1
   10e84:	00f005b3          	add	a1,zero,a5
   10e88:	00070613          	mv	a2,a4
   10e8c:	00000073          	ecall
   10e90:	fd842703          	lw	a4,-40(s0)
   10e94:	fe842783          	lw	a5,-24(s0)
   10e98:	40f707b3          	sub	a5,a4,a5
   10e9c:	00078513          	mv	a0,a5
   10ea0:	d2cff0ef          	jal	103cc <print_dec>
   10ea4:	000117b7          	lui	a5,0x11
   10ea8:	58078793          	addi	a5,a5,1408 # 11580 <fast_rsqrt+0x488>
   10eac:	0007a583          	lw	a1,0(a5)
   10eb0:	0047a603          	lw	a2,4(a5)
   10eb4:	0087a683          	lw	a3,8(a5)
   10eb8:	00c7a703          	lw	a4,12(a5)
   10ebc:	fab42823          	sw	a1,-80(s0)
   10ec0:	fac42a23          	sw	a2,-76(s0)
   10ec4:	fad42c23          	sw	a3,-72(s0)
   10ec8:	fae42e23          	sw	a4,-68(s0)
   10ecc:	0107c783          	lbu	a5,16(a5)
   10ed0:	fcf40023          	sb	a5,-64(s0)
   10ed4:	fb040793          	addi	a5,s0,-80
   10ed8:	01000713          	li	a4,16
   10edc:	04000893          	li	a7,64
   10ee0:	00100513          	li	a0,1
   10ee4:	00f005b3          	add	a1,zero,a5
   10ee8:	00070613          	mv	a2,a4
   10eec:	00000073          	ecall
   10ef0:	fd042703          	lw	a4,-48(s0)
   10ef4:	fe042783          	lw	a5,-32(s0)
   10ef8:	40f707b3          	sub	a5,a4,a5
   10efc:	00078513          	mv	a0,a5
   10f00:	cccff0ef          	jal	103cc <print_dec>
   10f04:	000117b7          	lui	a5,0x11
   10f08:	59478793          	addi	a5,a5,1428 # 11594 <fast_rsqrt+0x49c>
   10f0c:	0007a303          	lw	t1,0(a5)
   10f10:	0047a883          	lw	a7,4(a5)
   10f14:	0087a803          	lw	a6,8(a5)
   10f18:	00c7a503          	lw	a0,12(a5)
   10f1c:	0107a583          	lw	a1,16(a5)
   10f20:	0147a603          	lw	a2,20(a5)
   10f24:	0187a683          	lw	a3,24(a5)
   10f28:	01c7a703          	lw	a4,28(a5)
   10f2c:	f8642423          	sw	t1,-120(s0)
   10f30:	f9142623          	sw	a7,-116(s0)
   10f34:	f9042823          	sw	a6,-112(s0)
   10f38:	f8a42a23          	sw	a0,-108(s0)
   10f3c:	f8b42c23          	sw	a1,-104(s0)
   10f40:	f8c42e23          	sw	a2,-100(s0)
   10f44:	fad42023          	sw	a3,-96(s0)
   10f48:	fae42223          	sw	a4,-92(s0)
   10f4c:	0207d783          	lhu	a5,32(a5)
   10f50:	faf41423          	sh	a5,-88(s0)
   10f54:	f8840793          	addi	a5,s0,-120
   10f58:	02100713          	li	a4,33
   10f5c:	04000893          	li	a7,64
   10f60:	00100513          	li	a0,1
   10f64:	00f005b3          	add	a1,zero,a5
   10f68:	00070613          	mv	a2,a4
   10f6c:	00000073          	ecall
   10f70:	00000793          	li	a5,0
   10f74:	00078513          	mv	a0,a5
   10f78:	07c12083          	lw	ra,124(sp)
   10f7c:	07812403          	lw	s0,120(sp)
   10f80:	08010113          	addi	sp,sp,128
   10f84:	00008067          	ret

00010f88 <get_cycles>:
   10f88:	c80025f3          	rdcycleh	a1
   10f8c:	c0002573          	rdcycle	a0
   10f90:	c8002673          	rdcycleh	a2
   10f94:	fec59ae3          	bne	a1,a2,10f88 <get_cycles>
   10f98:	00008067          	ret

00010f9c <get_instret>:
   10f9c:	c82025f3          	rdinstreth	a1
   10fa0:	c0202573          	rdinstret	a0
   10fa4:	c8202673          	rdinstreth	a2
   10fa8:	fec59ae3          	bne	a1,a2,10f9c <get_instret>
   10fac:	00008067          	ret

00010fb0 <clz>:
   10fb0:	fd010113          	addi	sp,sp,-48
   10fb4:	02112623          	sw	ra,44(sp)
   10fb8:	02812423          	sw	s0,40(sp)
   10fbc:	03010413          	addi	s0,sp,48
   10fc0:	fca42e23          	sw	a0,-36(s0)
   10fc4:	fdc42783          	lw	a5,-36(s0)
   10fc8:	00079663          	bnez	a5,10fd4 <clz+0x24>
   10fcc:	02000793          	li	a5,32
   10fd0:	0400006f          	j	11010 <clz+0x60>
   10fd4:	fe042623          	sw	zero,-20(s0)
   10fd8:	800007b7          	lui	a5,0x80000
   10fdc:	fef42423          	sw	a5,-24(s0)
   10fe0:	01c0006f          	j	10ffc <clz+0x4c>
   10fe4:	fec42783          	lw	a5,-20(s0)
   10fe8:	00178793          	addi	a5,a5,1 # 80000001 <__stack_top+0x7ffed9c1>
   10fec:	fef42623          	sw	a5,-20(s0)
   10ff0:	fe842783          	lw	a5,-24(s0)
   10ff4:	0017d793          	srli	a5,a5,0x1
   10ff8:	fef42423          	sw	a5,-24(s0)
   10ffc:	fdc42703          	lw	a4,-36(s0)
   11000:	fe842783          	lw	a5,-24(s0)
   11004:	00f777b3          	and	a5,a4,a5
   11008:	fc078ee3          	beqz	a5,10fe4 <clz+0x34>
   1100c:	fec42783          	lw	a5,-20(s0)
   11010:	00078513          	mv	a0,a5
   11014:	02c12083          	lw	ra,44(sp)
   11018:	02812403          	lw	s0,40(sp)
   1101c:	03010113          	addi	sp,sp,48
   11020:	00008067          	ret

00011024 <mul32>:
   11024:	fc010113          	addi	sp,sp,-64
   11028:	02112e23          	sw	ra,60(sp)
   1102c:	02812c23          	sw	s0,56(sp)
   11030:	04010413          	addi	s0,sp,64
   11034:	fca42623          	sw	a0,-52(s0)
   11038:	fcb42423          	sw	a1,-56(s0)
   1103c:	00000613          	li	a2,0
   11040:	00000693          	li	a3,0
   11044:	fec42423          	sw	a2,-24(s0)
   11048:	fed42623          	sw	a3,-20(s0)
   1104c:	fcc42683          	lw	a3,-52(s0)
   11050:	fed42023          	sw	a3,-32(s0)
   11054:	fe042223          	sw	zero,-28(s0)
   11058:	fc842683          	lw	a3,-56(s0)
   1105c:	fcd42e23          	sw	a3,-36(s0)
   11060:	0700006f          	j	110d0 <mul32+0xac>
   11064:	fdc42683          	lw	a3,-36(s0)
   11068:	0016f693          	andi	a3,a3,1
   1106c:	02068a63          	beqz	a3,110a0 <mul32+0x7c>
   11070:	fe842503          	lw	a0,-24(s0)
   11074:	fec42583          	lw	a1,-20(s0)
   11078:	fe042803          	lw	a6,-32(s0)
   1107c:	fe442883          	lw	a7,-28(s0)
   11080:	01050633          	add	a2,a0,a6
   11084:	00060313          	mv	t1,a2
   11088:	00a33333          	sltu	t1,t1,a0
   1108c:	011586b3          	add	a3,a1,a7
   11090:	00d305b3          	add	a1,t1,a3
   11094:	00058693          	mv	a3,a1
   11098:	fec42423          	sw	a2,-24(s0)
   1109c:	fed42623          	sw	a3,-20(s0)
   110a0:	fe042683          	lw	a3,-32(s0)
   110a4:	01f6d693          	srli	a3,a3,0x1f
   110a8:	fe442603          	lw	a2,-28(s0)
   110ac:	00161793          	slli	a5,a2,0x1
   110b0:	00f6e7b3          	or	a5,a3,a5
   110b4:	fe042683          	lw	a3,-32(s0)
   110b8:	00169713          	slli	a4,a3,0x1
   110bc:	fee42023          	sw	a4,-32(s0)
   110c0:	fef42223          	sw	a5,-28(s0)
   110c4:	fdc42683          	lw	a3,-36(s0)
   110c8:	0016d693          	srli	a3,a3,0x1
   110cc:	fcd42e23          	sw	a3,-36(s0)
   110d0:	fdc42683          	lw	a3,-36(s0)
   110d4:	f80698e3          	bnez	a3,11064 <mul32+0x40>
   110d8:	fe842703          	lw	a4,-24(s0)
   110dc:	fec42783          	lw	a5,-20(s0)
   110e0:	00070513          	mv	a0,a4
   110e4:	00078593          	mv	a1,a5
   110e8:	03c12083          	lw	ra,60(sp)
   110ec:	03812403          	lw	s0,56(sp)
   110f0:	04010113          	addi	sp,sp,64
   110f4:	00008067          	ret

000110f8 <fast_rsqrt>:
   110f8:	f6010113          	addi	sp,sp,-160
   110fc:	08112e23          	sw	ra,156(sp)
   11100:	08812c23          	sw	s0,152(sp)
   11104:	09212a23          	sw	s2,148(sp)
   11108:	09312823          	sw	s3,144(sp)
   1110c:	09412623          	sw	s4,140(sp)
   11110:	09512423          	sw	s5,136(sp)
   11114:	09612223          	sw	s6,132(sp)
   11118:	09712023          	sw	s7,128(sp)
   1111c:	07812e23          	sw	s8,124(sp)
   11120:	07912c23          	sw	s9,120(sp)
   11124:	07a12a23          	sw	s10,116(sp)
   11128:	07b12823          	sw	s11,112(sp)
   1112c:	0a010413          	addi	s0,sp,160
   11130:	f6a42623          	sw	a0,-148(s0)
   11134:	f6c42783          	lw	a5,-148(s0)
   11138:	00079663          	bnez	a5,11144 <fast_rsqrt+0x4c>
   1113c:	fff00793          	li	a5,-1
   11140:	22c0006f          	j	1136c <fast_rsqrt+0x274>
   11144:	f6c42703          	lw	a4,-148(s0)
   11148:	00100793          	li	a5,1
   1114c:	00f71663          	bne	a4,a5,11158 <fast_rsqrt+0x60>
   11150:	000107b7          	lui	a5,0x10
   11154:	2180006f          	j	1136c <fast_rsqrt+0x274>
   11158:	f6c42503          	lw	a0,-148(s0)
   1115c:	e55ff0ef          	jal	10fb0 <clz>
   11160:	00050713          	mv	a4,a0
   11164:	01f00793          	li	a5,31
   11168:	40e787b3          	sub	a5,a5,a4
   1116c:	fcf42223          	sw	a5,-60(s0)
   11170:	fc442783          	lw	a5,-60(s0)
   11174:	00100713          	li	a4,1
   11178:	00f717b3          	sll	a5,a4,a5
   1117c:	fcf42023          	sw	a5,-64(s0)
   11180:	000117b7          	lui	a5,0x11
   11184:	5b878713          	addi	a4,a5,1464 # 115b8 <rsqrt_table>
   11188:	fc442783          	lw	a5,-60(s0)
   1118c:	00279793          	slli	a5,a5,0x2
   11190:	00f707b3          	add	a5,a4,a5
   11194:	0007a783          	lw	a5,0(a5)
   11198:	fcf42623          	sw	a5,-52(s0)
   1119c:	f6c42703          	lw	a4,-148(s0)
   111a0:	fc042783          	lw	a5,-64(s0)
   111a4:	10f70863          	beq	a4,a5,112b4 <fast_rsqrt+0x1bc>
   111a8:	fc442703          	lw	a4,-60(s0)
   111ac:	01e00793          	li	a5,30
   111b0:	02e7c263          	blt	a5,a4,111d4 <fast_rsqrt+0xdc>
   111b4:	fc442783          	lw	a5,-60(s0)
   111b8:	00178793          	addi	a5,a5,1
   111bc:	00011737          	lui	a4,0x11
   111c0:	5b870713          	addi	a4,a4,1464 # 115b8 <rsqrt_table>
   111c4:	00279793          	slli	a5,a5,0x2
   111c8:	00f707b3          	add	a5,a4,a5
   111cc:	0007a783          	lw	a5,0(a5)
   111d0:	0080006f          	j	111d8 <fast_rsqrt+0xe0>
   111d4:	00000793          	li	a5,0
   111d8:	faf42e23          	sw	a5,-68(s0)
   111dc:	fcc42703          	lw	a4,-52(s0)
   111e0:	fbc42783          	lw	a5,-68(s0)
   111e4:	40f707b3          	sub	a5,a4,a5
   111e8:	faf42c23          	sw	a5,-72(s0)
   111ec:	f6c42703          	lw	a4,-148(s0)
   111f0:	fc042783          	lw	a5,-64(s0)
   111f4:	40f707b3          	sub	a5,a4,a5
   111f8:	faf42a23          	sw	a5,-76(s0)
   111fc:	fb442783          	lw	a5,-76(s0)
   11200:	00078d13          	mv	s10,a5
   11204:	00000d93          	li	s11,0
   11208:	010d5793          	srli	a5,s10,0x10
   1120c:	010d9713          	slli	a4,s11,0x10
   11210:	00f767b3          	or	a5,a4,a5
   11214:	faf42623          	sw	a5,-84(s0)
   11218:	010d1793          	slli	a5,s10,0x10
   1121c:	faf42423          	sw	a5,-88(s0)
   11220:	fc442783          	lw	a5,-60(s0)
   11224:	fe078793          	addi	a5,a5,-32
   11228:	0007ca63          	bltz	a5,1123c <fast_rsqrt+0x144>
   1122c:	fac42703          	lw	a4,-84(s0)
   11230:	00f75933          	srl	s2,a4,a5
   11234:	00000993          	li	s3,0
   11238:	0380006f          	j	11270 <fast_rsqrt+0x178>
   1123c:	fac42783          	lw	a5,-84(s0)
   11240:	00179713          	slli	a4,a5,0x1
   11244:	01f00693          	li	a3,31
   11248:	fc442783          	lw	a5,-60(s0)
   1124c:	40f687b3          	sub	a5,a3,a5
   11250:	00f717b3          	sll	a5,a4,a5
   11254:	fc442703          	lw	a4,-60(s0)
   11258:	fa842683          	lw	a3,-88(s0)
   1125c:	00e6d933          	srl	s2,a3,a4
   11260:	0127e933          	or	s2,a5,s2
   11264:	fc442783          	lw	a5,-60(s0)
   11268:	fac42703          	lw	a4,-84(s0)
   1126c:	00f759b3          	srl	s3,a4,a5
   11270:	fb242223          	sw	s2,-92(s0)
   11274:	fa442583          	lw	a1,-92(s0)
   11278:	fb842503          	lw	a0,-72(s0)
   1127c:	da9ff0ef          	jal	11024 <mul32>
   11280:	f8a42c23          	sw	a0,-104(s0)
   11284:	f8b42e23          	sw	a1,-100(s0)
   11288:	f9c42783          	lw	a5,-100(s0)
   1128c:	01079793          	slli	a5,a5,0x10
   11290:	f9842703          	lw	a4,-104(s0)
   11294:	01075c13          	srli	s8,a4,0x10
   11298:	0187ec33          	or	s8,a5,s8
   1129c:	f9c42783          	lw	a5,-100(s0)
   112a0:	0107dc93          	srli	s9,a5,0x10
   112a4:	000c0713          	mv	a4,s8
   112a8:	fcc42783          	lw	a5,-52(s0)
   112ac:	40e787b3          	sub	a5,a5,a4
   112b0:	fcf42623          	sw	a5,-52(s0)
   112b4:	fc042423          	sw	zero,-56(s0)
   112b8:	0a40006f          	j	1135c <fast_rsqrt+0x264>
   112bc:	fcc42583          	lw	a1,-52(s0)
   112c0:	fcc42503          	lw	a0,-52(s0)
   112c4:	d61ff0ef          	jal	11024 <mul32>
   112c8:	f8a42823          	sw	a0,-112(s0)
   112cc:	f8b42a23          	sw	a1,-108(s0)
   112d0:	f9042783          	lw	a5,-112(s0)
   112d4:	f8f42623          	sw	a5,-116(s0)
   112d8:	f8c42583          	lw	a1,-116(s0)
   112dc:	f6c42503          	lw	a0,-148(s0)
   112e0:	d45ff0ef          	jal	11024 <mul32>
   112e4:	f8a42023          	sw	a0,-128(s0)
   112e8:	f8b42223          	sw	a1,-124(s0)
   112ec:	f8442783          	lw	a5,-124(s0)
   112f0:	01079793          	slli	a5,a5,0x10
   112f4:	f8042703          	lw	a4,-128(s0)
   112f8:	01075a13          	srli	s4,a4,0x10
   112fc:	0147ea33          	or	s4,a5,s4
   11300:	f8442783          	lw	a5,-124(s0)
   11304:	0107da93          	srli	s5,a5,0x10
   11308:	f7442e23          	sw	s4,-132(s0)
   1130c:	00030737          	lui	a4,0x30
   11310:	f7c42783          	lw	a5,-132(s0)
   11314:	40f707b3          	sub	a5,a4,a5
   11318:	f6f42c23          	sw	a5,-136(s0)
   1131c:	f7842583          	lw	a1,-136(s0)
   11320:	fcc42503          	lw	a0,-52(s0)
   11324:	d01ff0ef          	jal	11024 <mul32>
   11328:	f6a42823          	sw	a0,-144(s0)
   1132c:	f6b42a23          	sw	a1,-140(s0)
   11330:	f7442783          	lw	a5,-140(s0)
   11334:	00f79793          	slli	a5,a5,0xf
   11338:	f7042703          	lw	a4,-144(s0)
   1133c:	01175b13          	srli	s6,a4,0x11
   11340:	0167eb33          	or	s6,a5,s6
   11344:	f7442783          	lw	a5,-140(s0)
   11348:	0117db93          	srli	s7,a5,0x11
   1134c:	fd642623          	sw	s6,-52(s0)
   11350:	fc842783          	lw	a5,-56(s0)
   11354:	00178793          	addi	a5,a5,1
   11358:	fcf42423          	sw	a5,-56(s0)
   1135c:	fc842703          	lw	a4,-56(s0)
   11360:	00100793          	li	a5,1
   11364:	f4e7dce3          	bge	a5,a4,112bc <fast_rsqrt+0x1c4>
   11368:	fcc42783          	lw	a5,-52(s0)
   1136c:	00078513          	mv	a0,a5
   11370:	09c12083          	lw	ra,156(sp)
   11374:	09812403          	lw	s0,152(sp)
   11378:	09412903          	lw	s2,148(sp)
   1137c:	09012983          	lw	s3,144(sp)
   11380:	08c12a03          	lw	s4,140(sp)
   11384:	08812a83          	lw	s5,136(sp)
   11388:	08412b03          	lw	s6,132(sp)
   1138c:	08012b83          	lw	s7,128(sp)
   11390:	07c12c03          	lw	s8,124(sp)
   11394:	07812c83          	lw	s9,120(sp)
   11398:	07412d03          	lw	s10,116(sp)
   1139c:	07012d83          	lw	s11,112(sp)
   113a0:	0a010113          	addi	sp,sp,160
   113a4:	00008067          	ret
